target datalayout = "e-m:e-p270:32:32-p271:32:32-p272:64:64-i64:64-i128:128-f80:128-n8:16:32:64-S128"
target triple = "x86_64-pc-linux-gnu"

%"class.llvm::PrettyStackTraceEntry" = type { ptr, ptr }
%struct.__va_list_tag = type { i32, i32, ptr, ptr }
%"class.llvm::PrettyStackTraceFormat" = type { %"class.llvm::PrettyStackTraceEntry", %"class.llvm::SmallVector" }
%"class.llvm::SmallVector" = type { %"class.llvm::SmallVectorImpl", %"struct.llvm::SmallVectorStorage" }
%"class.llvm::SmallVectorImpl" = type { %"class.llvm::SmallVectorTemplateBase" }
%"class.llvm::SmallVectorTemplateBase" = type { %"class.llvm::SmallVectorTemplateCommon" }
%"class.llvm::SmallVectorTemplateCommon" = type { %"class.llvm::SmallVectorBase" }
%"class.llvm::SmallVectorBase" = type { ptr, i64, i64 }
%"struct.llvm::SmallVectorStorage" = type { [32 x i8] }

@_ZTVN4llvm21PrettyStackTraceEntryE = unnamed_addr constant { [5 x ptr] } { [5 x ptr] [ptr null, ptr null, ptr @_ZN4llvm21PrettyStackTraceEntryD1Ev, ptr @_ZN4llvm21PrettyStackTraceEntryD0Ev, ptr @__cxa_pure_virtual] }, align 8
@_ZL20PrettyStackTraceHead = internal thread_local global ptr null, align 8
@_ZTVN4llvm22PrettyStackTraceFormatE = unnamed_addr constant { [5 x ptr] } { [5 x ptr] [ptr null, ptr null, ptr @_ZN4llvm22PrettyStackTraceFormatD2Ev, ptr @_ZN4llvm22PrettyStackTraceFormatD0Ev, ptr @_ZNK4llvm22PrettyStackTraceFormat5printERNS_11raw_ostreamE] }, align 8
@_ZL35ThreadLocalSigInfoGenerationCounter = internal thread_local global i32 0, align 4
@_ZL30GlobalSigInfoGenerationCounter = internal global { i32 } { i32 1 }, align 4

; Function Attrs: mustprogress nounwind uwtable
define linkonce_odr hidden noundef ptr @_ZNK4llvm25SmallVectorTemplateCommonIcvE10getFirstElEv(ptr noundef nonnull align 8 dereferenceable(24) %0) #0 comdat align 2 {
  %2 = alloca ptr, align 8
  store ptr %0, ptr %2, align 8
  %3 = load ptr, ptr %2, align 8
  %4 = getelementptr inbounds i8, ptr %3, i64 24
  ret ptr %4
}

; Function Attrs: mustprogress nounwind uwtable
define linkonce_odr hidden void @_ZN4llvm25SmallVectorTemplateCommonIcvEC2Em(ptr noundef nonnull align 8 dereferenceable(24) %0, i64 noundef %1) unnamed_addr #0 comdat align 2 {
  %3 = alloca ptr, align 8
  %4 = alloca i64, align 8
  store ptr %0, ptr %3, align 8
  store i64 %1, ptr %4, align 8
  %5 = load ptr, ptr %3, align 8
  %6 = call noundef ptr @_ZNK4llvm25SmallVectorTemplateCommonIcvE10getFirstElEv(ptr noundef nonnull align 8 dereferenceable(24) %5)
  %7 = load i64, ptr %4, align 8
  call void @_ZN4llvm15SmallVectorBaseImEC2EPvm(ptr noundef nonnull align 8 dereferenceable(24) %5, ptr noundef %6, i64 noundef %7)
  ret void
}

; Function Attrs: mustprogress nounwind uwtable
define linkonce_odr hidden void @_ZN4llvm23SmallVectorTemplateBaseIcLb1EEC2Em(ptr noundef nonnull align 8 dereferenceable(24) %0, i64 noundef %1) unnamed_addr #0 comdat align 2 {
  %3 = alloca ptr, align 8
  %4 = alloca i64, align 8
  store ptr %0, ptr %3, align 8
  store i64 %1, ptr %4, align 8
  %5 = load ptr, ptr %3, align 8
  %6 = load i64, ptr %4, align 8
  call void @_ZN4llvm25SmallVectorTemplateCommonIcvEC2Em(ptr noundef nonnull align 8 dereferenceable(24) %5, i64 noundef %6)
  ret void
}

; Function Attrs: mustprogress nounwind uwtable
define linkonce_odr noundef i32 @_ZStanSt12memory_orderSt23__memory_order_modifier(i32 noundef %0, i32 noundef %1) #0 comdat {
  %3 = alloca i32, align 4
  %4 = alloca i32, align 4
  store i32 %0, ptr %3, align 4
  store i32 %1, ptr %4, align 4
  %5 = load i32, ptr %3, align 4
  %6 = load i32, ptr %4, align 4
  %7 = and i32 %5, %6
  ret i32 %7
}

; Function Attrs: mustprogress nounwind uwtable
define linkonce_odr hidden noundef ptr @_ZN4llvm25SmallVectorTemplateCommonIcvE5beginEv(ptr noundef nonnull align 8 dereferenceable(24) %0) #0 comdat align 2 {
  %2 = alloca ptr, align 8
  store ptr %0, ptr %2, align 8
  %3 = load ptr, ptr %2, align 8
  %4 = getelementptr inbounds nuw %"class.llvm::SmallVectorBase", ptr %3, i32 0, i32 0
  %5 = load ptr, ptr %4, align 8
  ret ptr %5
}

; Function Attrs: mustprogress nounwind uwtable
define linkonce_odr hidden void @_ZN4llvm15SmallVectorImplIcEC2Ej(ptr noundef nonnull align 8 dereferenceable(24) %0, i32 noundef %1) unnamed_addr #0 comdat align 2 {
  %3 = alloca ptr, align 8
  %4 = alloca i32, align 4
  store ptr %0, ptr %3, align 8
  store i32 %1, ptr %4, align 4
  %5 = load ptr, ptr %3, align 8
  %6 = load i32, ptr %4, align 4
  %7 = zext i32 %6 to i64
  call void @_ZN4llvm23SmallVectorTemplateBaseIcLb1EEC2Em(ptr noundef nonnull align 8 dereferenceable(24) %5, i64 noundef %7)
  ret void
}

; Function Attrs: mustprogress nounwind uwtable
define internal void @_ZL23printForSigInfoIfNeededv() #0 {
  %1 = alloca ptr, align 8
  %2 = alloca i32, align 4
  %3 = alloca i32, align 4
  %4 = alloca i32, align 4
  %5 = alloca i32, align 4
  store ptr @_ZL30GlobalSigInfoGenerationCounter, ptr %1, align 8
  store i32 0, ptr %2, align 4
  %6 = load ptr, ptr %1, align 8
  %7 = load i32, ptr %2, align 4
  %8 = call noundef i32 @_ZStanSt12memory_orderSt23__memory_order_modifier(i32 noundef %7, i32 noundef 65535)
  store i32 %8, ptr %3, align 4
  %9 = load i32, ptr %2, align 4
  switch i32 %9, label %10 [
    i32 1, label %12
    i32 2, label %12
    i32 5, label %14
  ]

10:                                               ; preds = %0
  %11 = load atomic volatile i32, ptr %6 monotonic, align 4
  store i32 %11, ptr %4, align 4
  br label %16

12:                                               ; preds = %0, %0
  %13 = load atomic volatile i32, ptr %6 acquire, align 4
  store i32 %13, ptr %4, align 4
  br label %16

14:                                               ; preds = %0
  %15 = load atomic volatile i32, ptr %6 seq_cst, align 4
  store i32 %15, ptr %4, align 4
  br label %16

16:                                               ; preds = %14, %12, %10
  %17 = load i32, ptr %4, align 4
  store i32 %17, ptr %5, align 4
  %18 = call align 4 ptr @llvm.threadlocal.address.p0(ptr align 4 @_ZL35ThreadLocalSigInfoGenerationCounter)
  %19 = load i32, ptr %18, align 4
  %20 = icmp eq i32 %19, 0
  br i1 %20, label %26, label %21

21:                                               ; preds = %16
  %22 = call align 4 ptr @llvm.threadlocal.address.p0(ptr align 4 @_ZL35ThreadLocalSigInfoGenerationCounter)
  %23 = load i32, ptr %22, align 4
  %24 = load i32, ptr %5, align 4
  %25 = icmp eq i32 %23, %24
  br i1 %25, label %26, label %27

26:                                               ; preds = %21, %16
  br label %31

27:                                               ; preds = %21
  %28 = call noundef nonnull align 8 dereferenceable(96) ptr @_ZN4llvm4errsEv()
  call void @_ZL18PrintCurStackTraceRN4llvm11raw_ostreamE(ptr noundef nonnull align 8 dereferenceable(48) %28)
  %29 = load i32, ptr %5, align 4
  %30 = call align 4 ptr @llvm.threadlocal.address.p0(ptr align 4 @_ZL35ThreadLocalSigInfoGenerationCounter)
  store i32 %29, ptr %30, align 4
  br label %31

31:                                               ; preds = %27, %26
  ret void
}

; Function Attrs: mustprogress nounwind uwtable
define linkonce_odr hidden noundef ptr @_ZN4llvm25SmallVectorTemplateCommonIcvE4dataEv(ptr noundef nonnull align 8 dereferenceable(24) %0) #0 comdat align 2 {
  %2 = alloca ptr, align 8
  store ptr %0, ptr %2, align 8
  %3 = load ptr, ptr %2, align 8
  %4 = call noundef ptr @_ZN4llvm25SmallVectorTemplateCommonIcvE5beginEv(ptr noundef nonnull align 8 dereferenceable(24) %3)
  ret ptr %4
}

; Function Attrs: mustprogress nounwind uwtable
define linkonce_odr hidden void @_ZN4llvm15SmallVectorImplIcE6resizeEm(ptr noundef nonnull align 8 dereferenceable(24) %0, i64 noundef %1) #0 comdat align 2 {
  %3 = alloca ptr, align 8
  %4 = alloca i64, align 8
  store ptr %0, ptr %3, align 8
  store i64 %1, ptr %4, align 8
  %5 = load ptr, ptr %3, align 8
  %6 = load i64, ptr %4, align 8
  call void @_ZN4llvm15SmallVectorImplIcE10resizeImplILb0EEEvm(ptr noundef nonnull align 8 dereferenceable(24) %5, i64 noundef %6)
  ret void
}

; Function Attrs: mustprogress nounwind uwtable
define linkonce_odr hidden void @_ZN4llvm11SmallVectorIcLj32EEC2Ev(ptr noundef nonnull align 8 dereferenceable(56) %0) unnamed_addr #0 comdat align 2 {
  %2 = alloca ptr, align 8
  store ptr %0, ptr %2, align 8
  %3 = load ptr, ptr %2, align 8
  call void @_ZN4llvm15SmallVectorImplIcEC2Ej(ptr noundef nonnull align 8 dereferenceable(24) %3, i32 noundef 32)
  ret void
}

; Function Attrs: mustprogress nounwind uwtable
define dso_local void @_ZN4llvm21PrettyStackTraceEntryC2Ev(ptr noundef nonnull align 8 dereferenceable(16) %0) unnamed_addr #0 align 2 {
  %2 = alloca ptr, align 8
  store ptr %0, ptr %2, align 8
  %3 = load ptr, ptr %2, align 8
  store ptr getelementptr inbounds inrange(-16, 24) ({ [5 x ptr] }, ptr @_ZTVN4llvm21PrettyStackTraceEntryE, i32 0, i32 0, i32 2), ptr %3, align 8
  call void @_ZL23printForSigInfoIfNeededv()
  %4 = call align 8 ptr @llvm.threadlocal.address.p0(ptr align 8 @_ZL20PrettyStackTraceHead)
  %5 = load ptr, ptr %4, align 8
  %6 = getelementptr inbounds nuw %"class.llvm::PrettyStackTraceEntry", ptr %3, i32 0, i32 1
  store ptr %5, ptr %6, align 8
  %7 = call align 8 ptr @llvm.threadlocal.address.p0(ptr align 8 @_ZL20PrettyStackTraceHead)
  store ptr %3, ptr %7, align 8
  ret void
}

; Function Attrs: mustprogress nounwind uwtable
define dso_local void @_ZN4llvm22PrettyStackTraceFormatC2EPKcz(ptr noundef nonnull align 8 dereferenceable(72) %0, ptr noundef %1, ...) unnamed_addr #0 align 2 {
  %3 = alloca ptr, align 8
  %4 = alloca ptr, align 8
  %5 = alloca [1 x %struct.__va_list_tag], align 16
  %6 = alloca i32, align 4
  %7 = alloca i32, align 4
  store ptr %0, ptr %3, align 8
  store ptr %1, ptr %4, align 8
  %8 = load ptr, ptr %3, align 8
  call void @_ZN4llvm21PrettyStackTraceEntryC2Ev(ptr noundef nonnull align 8 dereferenceable(16) %8)
  store ptr getelementptr inbounds inrange(-16, 24) ({ [5 x ptr] }, ptr @_ZTVN4llvm22PrettyStackTraceFormatE, i32 0, i32 0, i32 2), ptr %8, align 8
  %9 = getelementptr inbounds nuw %"class.llvm::PrettyStackTraceFormat", ptr %8, i32 0, i32 1
  call void @_ZN4llvm11SmallVectorIcLj32EEC2Ev(ptr noundef nonnull align 8 dereferenceable(56) %9)
  %10 = getelementptr inbounds [1 x %struct.__va_list_tag], ptr %5, i64 0, i64 0
  call void @llvm.va_start.p0(ptr %10)
  %11 = load ptr, ptr %4, align 8
  %12 = getelementptr inbounds [1 x %struct.__va_list_tag], ptr %5, i64 0, i64 0
  %13 = call i32 @vsnprintf(ptr noundef null, i64 noundef 0, ptr noundef %11, ptr noundef %12) #7
  store i32 %13, ptr %6, align 4
  %14 = getelementptr inbounds [1 x %struct.__va_list_tag], ptr %5, i64 0, i64 0
  call void @llvm.va_end.p0(ptr %14)
  %15 = load i32, ptr %6, align 4
  %16 = icmp slt i32 %15, 0
  br i1 %16, label %17, label %18

17:                                               ; preds = %2
  br label %33

18:                                               ; preds = %2
  %19 = load i32, ptr %6, align 4
  %20 = add nsw i32 %19, 1
  store i32 %20, ptr %7, align 4
  %21 = getelementptr inbounds nuw %"class.llvm::PrettyStackTraceFormat", ptr %8, i32 0, i32 1
  %22 = load i32, ptr %7, align 4
  %23 = sext i32 %22 to i64
  call void @_ZN4llvm15SmallVectorImplIcE6resizeEm(ptr noundef nonnull align 8 dereferenceable(24) %21, i64 noundef %23)
  %24 = getelementptr inbounds [1 x %struct.__va_list_tag], ptr %5, i64 0, i64 0
  call void @llvm.va_start.p0(ptr %24)
  %25 = getelementptr inbounds nuw %"class.llvm::PrettyStackTraceFormat", ptr %8, i32 0, i32 1
  %26 = call noundef ptr @_ZN4llvm25SmallVectorTemplateCommonIcvE4dataEv(ptr noundef nonnull align 8 dereferenceable(24) %25)
  %27 = load i32, ptr %7, align 4
  %28 = sext i32 %27 to i64
  %29 = load ptr, ptr %4, align 8
  %30 = getelementptr inbounds [1 x %struct.__va_list_tag], ptr %5, i64 0, i64 0
  %31 = call i32 @vsnprintf(ptr noundef %26, i64 noundef %28, ptr noundef %29, ptr noundef %30) #7
  %32 = getelementptr inbounds [1 x %struct.__va_list_tag], ptr %5, i64 0, i64 0
  call void @llvm.va_end.p0(ptr %32)
  br label %33

33:                                               ; preds = %18, %17
  ret void
}