; Function Attrs: mustprogress nounwind uwtable
define dso_local void @_ZN4llvm22PrettyStackTraceFormatC2EPKcz(ptr noundef nonnull align 8 dereferenceable(72) initializes((0, 16)) %0, ptr noundef readonly captures(none) %1, ...) unnamed_addr #3 align 2 {
  %3 = alloca [1 x %struct.__va_list_tag], align 16
  store ptr getelementptr inbounds nuw inrange(-16, 24) (i8, ptr @_ZTVN4llvm21PrettyStackTraceEntryE, i64 16), ptr %0, align 8
  %4 = load atomic volatile i32, ptr @_ZL30GlobalSigInfoGenerationCounter monotonic, align 4
  %5 = tail call align 4 ptr @llvm.threadlocal.address.p0(ptr align 4 @_ZL35ThreadLocalSigInfoGenerationCounter)
  %6 = load i32, ptr %5, align 4
  %7 = icmp eq i32 %6, 0
  %8 = icmp eq i32 %6, %4
  %or.cond.i.i = select i1 %7, i1 true, i1 %8
  br i1 %or.cond.i.i, label %_ZN4llvm21PrettyStackTraceEntryC2Ev.exit, label %9

9:                                                ; preds = %2
  %10 = tail call noundef nonnull align 8 dereferenceable(96) ptr @_ZN4llvm4errsEv() #19
  tail call fastcc void @_ZL18PrintCurStackTraceRN4llvm11raw_ostreamE(ptr noundef nonnull align 8 dereferenceable(48) %10)
  store i32 %4, ptr %5, align 4
  br label %_ZN4llvm21PrettyStackTraceEntryC2Ev.exit

_ZN4llvm21PrettyStackTraceEntryC2Ev.exit:         ; preds = %2, %9
  %11 = tail call align 8 ptr @llvm.threadlocal.address.p0(ptr align 8 @_ZL20PrettyStackTraceHead)
  %12 = load ptr, ptr %11, align 8
  %13 = getelementptr inbounds nuw i8, ptr %0, i64 8
  store ptr %12, ptr %13, align 8
  store ptr %0, ptr %11, align 8
  store ptr getelementptr inbounds nuw inrange(-16, 24) (i8, ptr @_ZTVN4llvm22PrettyStackTraceFormatE, i64 16), ptr %0, align 8
  %14 = getelementptr inbounds nuw i8, ptr %0, i64 16
  %15 = getelementptr inbounds nuw i8, ptr %0, i64 40
  tail call void @_ZN4llvm15SmallVectorBaseImEC2EPvm(ptr noundef nonnull align 8 dereferenceable(56) %14, ptr noundef nonnull %15, i64 noundef 32) #19
  call void @llvm.va_start.p0(ptr nonnull %3)
  %16 = call i32 @vsnprintf(ptr noundef null, i64 noundef 0, ptr noundef %1, ptr noundef nonnull %3) #19
  call void @llvm.va_end.p0(ptr nonnull %3)
  %17 = icmp slt i32 %16, 0
  br i1 %17, label %23, label %18

18:                                               ; preds = %_ZN4llvm21PrettyStackTraceEntryC2Ev.exit
  %19 = add nuw nsw i32 %16, 1
  %20 = zext nneg i32 %19 to i64
  call void @_ZN4llvm15SmallVectorImplIcE10resizeImplILb0EEEvm(ptr noundef nonnull align 8 dereferenceable(24) %14, i64 noundef %20)
  call void @llvm.va_start.p0(ptr nonnull %3)
  %21 = load ptr, ptr %14, align 8
  %22 = call i32 @vsnprintf(ptr noundef %21, i64 noundef %20, ptr noundef %1, ptr noundef nonnull %3) #19
  call void @llvm.va_end.p0(ptr nonnull %3)
  br label %23

23:                                               ; preds = %_ZN4llvm21PrettyStackTraceEntryC2Ev.exit, %18
  ret void
}